(dp1
S'Nayana Namboothiri'
p2
(lp3
(lp4
S' '
aa(lp5
S'9349248486'
p6
aS'04872350050'
p7
aasS'Binyas'
p8
(lp9
(lp10
S' '
aa(lp11
S'9895973956'
p12
aasS'A.E.Shyam'
p13
(lp14
(lp15
S' '
aa(lp16
S'9496364815'
p17
aasS'Akhil Balakrishnan'
p18
(lp19
(lp20
S' '
aa(lp21
S'9995810757'
p22
aasS'Abhijith'
p23
(lp24
(lp25
S' '
aa(lp26
S'09916419131'
p27
aasS'Akhil Krishnan'
p28
(lp29
(lp30
S' '
aa(lp31
S'9496351042'
p32
aS'9495275241'
p33
aas.